; Function Attrs: nounwind uwtable
define dso_local void @PHP_RIPEMD160Update(ptr noundef captures(none) %0, ptr noundef readonly captures(none) %1, i64 noundef %2) #1 {
._crit_edge:
  %3 = getelementptr inbounds nuw i8, ptr %0, i64 20
  %4 = load i32, ptr %3, align 4, !tbaa !4
  %5 = lshr i32 %4, 3
  %6 = and i32 %5, 63
  %7 = trunc i64 %2 to i32
  %8 = shl i32 %7, 3
  %9 = add i32 %4, %8
  store i32 %9, ptr %3, align 4, !tbaa !4
  %10 = icmp ult i32 %9, %8
  %11 = getelementptr inbounds nuw i8, ptr %0, i64 24
  %12 = load i32, ptr %11, align 4, !tbaa !4
  %13 = zext i1 %10 to i32
  %14 = add i32 %12, %13
  %15 = lshr i64 %2, 29
  %16 = trunc i64 %15 to i32
  %17 = getelementptr inbounds nuw i8, ptr %0, i64 24
  %18 = add i32 %14, %16
  store i32 %18, ptr %17, align 4, !tbaa !4
  %19 = sub nuw nsw i32 64, %6
  %20 = zext nneg i32 %19 to i64
  %.not = icmp ult i64 %2, %20
  br i1 %.not, label %31, label %21

21:                                               ; preds = %._crit_edge
  %22 = getelementptr inbounds nuw i8, ptr %0, i64 28
  %23 = zext nneg i32 %6 to i64
  %24 = getelementptr inbounds nuw [64 x i8], ptr %22, i64 0, i64 %23
  tail call void @llvm.memcpy.p0.p0.i64(ptr noundef nonnull align 1 dereferenceable(1) %24, ptr noundef nonnull align 1 dereferenceable(1) %1, i64 %20, i1 false)
  tail call fastcc void @RIPEMD160Transform(ptr noundef nonnull %0, ptr noundef nonnull %22)
  %25 = add nuw nsw i64 %20, 63
  %26 = icmp ult i64 %25, %2
  br i1 %26, label %.lr.ph, label %.loopexit

.lr.ph:                                           ; preds = %21, %.lr.ph
  %.031 = phi i64 [ %28, %.lr.ph ], [ %20, %21 ]
  %27 = getelementptr inbounds nuw i8, ptr %1, i64 %.031
  tail call fastcc void @RIPEMD160Transform(ptr noundef nonnull %0, ptr noundef nonnull %27)
  %28 = add i64 %.031, 64
  %29 = add i64 %.031, 127
  %30 = icmp ult i64 %29, %2
  br i1 %30, label %.lr.ph, label %.loopexit

31:                                               ; preds = %._crit_edge
  %32 = zext nneg i32 %6 to i64
  br label %.loopexit

.loopexit:                                        ; preds = %.lr.ph, %21, %31
  %.028 = phi i64 [ %32, %31 ], [ 0, %21 ], [ 0, %.lr.ph ]
  %.1 = phi i64 [ 0, %31 ], [ %20, %21 ], [ %28, %.lr.ph ]
  %33 = getelementptr inbounds nuw i8, ptr %0, i64 28
  %34 = getelementptr inbounds nuw [64 x i8], ptr %33, i64 0, i64 %.028
  %35 = getelementptr inbounds nuw i8, ptr %1, i64 %.1
  %36 = sub i64 %2, %.1
  tail call void @llvm.memcpy.p0.p0.i64(ptr nonnull align 1 %34, ptr align 1 %35, i64 %36, i1 false)
  ret void
}